target datalayout = "e-m:e-p270:32:32-p271:32:32-p272:64:64-i64:64-i128:128-f80:128-n8:16:32:64-S128"
target triple = "x86_64-pc-linux-gnu"

; Function Attrs: nounwind uwtable
define dso_local ptr @debackslash(ptr noundef %0, i32 noundef %1) #0 {
  %3 = alloca ptr, align 8
  %4 = alloca i32, align 4
  %5 = alloca ptr, align 8
  %6 = alloca ptr, align 8
  store ptr %0, ptr %3, align 8
  store i32 %1, ptr %4, align 4
  call void @llvm.lifetime.start.p0(i64 8, ptr %5) #9
  %7 = load i32, ptr %4, align 4
  %8 = add i32 %7, 1
  %9 = sext i32 %8 to i64
  %10 = call ptr @palloc(i64 noundef %9)
  store ptr %10, ptr %5, align 8
  call void @llvm.lifetime.start.p0(i64 8, ptr %6) #9
  %11 = load ptr, ptr %5, align 8
  store ptr %11, ptr %6, align 8
  br label %12

12:                                               ; preds = %28, %2
  %13 = load i32, ptr %4, align 4
  %14 = icmp sgt i32 %13, 0
  br i1 %14, label %15, label %36

15:                                               ; preds = %12
  %16 = load ptr, ptr %3, align 8
  %17 = load i8, ptr %16, align 1
  %18 = sext i8 %17 to i32
  %19 = icmp eq i32 %18, 92
  br i1 %19, label %20, label %28

20:                                               ; preds = %15
  %21 = load i32, ptr %4, align 4
  %22 = icmp sgt i32 %21, 1
  br i1 %22, label %23, label %28

23:                                               ; preds = %20
  %24 = load ptr, ptr %3, align 8
  %25 = getelementptr inbounds nuw i8, ptr %24, i32 1
  store ptr %25, ptr %3, align 8
  %26 = load i32, ptr %4, align 4
  %27 = add i32 %26, -1
  store i32 %27, ptr %4, align 4
  br label %28

28:                                               ; preds = %23, %20, %15
  %29 = load ptr, ptr %3, align 8
  %30 = getelementptr inbounds nuw i8, ptr %29, i32 1
  store ptr %30, ptr %3, align 8
  %31 = load i8, ptr %29, align 1
  %32 = load ptr, ptr %6, align 8
  %33 = getelementptr inbounds nuw i8, ptr %32, i32 1
  store ptr %33, ptr %6, align 8
  store i8 %31, ptr %32, align 1
  %34 = load i32, ptr %4, align 4
  %35 = add i32 %34, -1
  store i32 %35, ptr %4, align 4
  br label %12, !llvm.loop !7

36:                                               ; preds = %12
  %37 = load ptr, ptr %6, align 8
  store i8 0, ptr %37, align 1
  %38 = load ptr, ptr %5, align 8
  call void @llvm.lifetime.end.p0(i64 8, ptr %6) #9
  call void @llvm.lifetime.end.p0(i64 8, ptr %5) #9
  ret ptr %38
}