; Function Attrs: nounwind uwtable
define dso_local ptr @debackslash(ptr noundef readonly captures(none) %0, i32 noundef %1) local_unnamed_addr #0 {
  %3 = add i32 %1, 1
  %4 = sext i32 %3 to i64
  %5 = tail call ptr @palloc(i64 noundef %4) #10
  %6 = icmp sgt i32 %1, 0
  br i1 %6, label %.lr.ph, label %._crit_edge

.lr.ph:                                           ; preds = %2, %.lr.ph
  %.017 = phi ptr [ %13, %.lr.ph ], [ %5, %2 ]
  %.01216 = phi ptr [ %11, %.lr.ph ], [ %0, %2 ]
  %.01315 = phi i32 [ %14, %.lr.ph ], [ %1, %2 ]
  %7 = load i8, ptr %.01216, align 1
  %8 = icmp eq i8 %7, 92
  %9 = icmp ne i32 %.01315, 1
  %or.cond = and i1 %9, %8
  %10 = sext i1 %or.cond to i32
  %.1.idx = zext i1 %or.cond to i64
  %.1 = getelementptr inbounds nuw i8, ptr %.01216, i64 %.1.idx
  %11 = getelementptr inbounds nuw i8, ptr %.1, i64 1
  %12 = load i8, ptr %.1, align 1
  %13 = getelementptr inbounds nuw i8, ptr %.017, i64 1
  store i8 %12, ptr %.017, align 1
  %.114 = add nsw i32 %.01315, -1
  %14 = add nsw i32 %.114, %10
  %15 = icmp sgt i32 %14, 0
  br i1 %15, label %.lr.ph, label %._crit_edge, !llvm.loop !7

._crit_edge:                                      ; preds = %.lr.ph, %2
  %.0.lcssa = phi ptr [ %5, %2 ], [ %13, %.lr.ph ]
  store i8 0, ptr %.0.lcssa, align 1
  ret ptr %5
}